target datalayout = "e-m:e-p270:32:32-p271:32:32-p272:64:64-i64:64-i128:128-f80:128-n8:16:32:64-S128"
target triple = "x86_64-pc-linux-gnu"

%struct.QemuMutex = type { %union.pthread_mutex_t, i8 }
%union.pthread_mutex_t = type { %struct.__pthread_mutex_s }
%struct.__pthread_mutex_s = type { i32, i32, i32, i32, i32, i16, i16, %struct.__pthread_internal_list }
%struct.__pthread_internal_list = type { ptr, ptr }
%struct.Job = type { ptr, ptr, ptr, i8, i8, ptr, ptr, %struct.ProgressMeter, ptr, i32, i32, %struct.QEMUTimer, i32, i8, i8, i8, i8, i8, i8, i32, ptr, %struct.NotifierList, %struct.NotifierList, %struct.NotifierList, %struct.NotifierList, %struct.NotifierList, %struct.anon.1, ptr, %struct.anon.2 }
%struct.ProgressMeter = type { i64, i64, %struct.QemuMutex }
%struct.QEMUTimer = type { i64, ptr, ptr, ptr, ptr, i32, i32 }
%struct.NotifierList = type { %struct.anon.0 }
%struct.anon.0 = type { ptr }
%struct.anon.1 = type { ptr, ptr }
%struct.anon.2 = type { ptr, ptr }
%struct.JobDriver = type { i64, i32, ptr, ptr, ptr, ptr, ptr, ptr, ptr, ptr, ptr, ptr, ptr }

@qemu_mutex_lock_func = external global ptr, align 8
@job_mutex = dso_local global %struct.QemuMutex zeroinitializer, align 8
@.str = private unnamed_addr constant [14 x i8] c"../qemu/job.c\00", align 1
@.str.6 = private unnamed_addr constant [22 x i8] c"qemu_in_main_thread()\00", align 1
@.str.21 = private unnamed_addr constant [8 x i8] c"job->id\00", align 1
@__PRETTY_FUNCTION__.job_complete_locked = private unnamed_addr constant [42 x i8] c"void job_complete_locked(Job *, Error **)\00", align 1
@__func__.job_complete_locked = private unnamed_addr constant [20 x i8] c"job_complete_locked\00", align 1
@.str.27 = private unnamed_addr constant [46 x i8] c"The active block job '%s' cannot be completed\00", align 1

; Function Attrs: nounwind sspstrong uwtable
define dso_local void @job_lock() #0 {
  %1 = alloca ptr, align 8
  %2 = alloca ptr, align 8
  %3 = alloca ptr, align 8
  call void @llvm.lifetime.start.p0(i64 8, ptr %1) #16
  br label %4

4:                                                ; preds = %0
  br i1 false, label %5, label %6

5:                                                ; preds = %4
  call void @qemu_build_not_reached_always() #17, !srcloc !4
  unreachable

6:                                                ; preds = %4
  %7 = load atomic i64, ptr @qemu_mutex_lock_func monotonic, align 8
  store i64 %7, ptr %3, align 8
  %8 = load ptr, ptr %3, align 8
  store ptr %8, ptr %2, align 8
  %9 = load ptr, ptr %2, align 8
  store ptr %9, ptr %1, align 8
  %10 = load ptr, ptr %1, align 8
  call void %10(ptr noundef @job_mutex, ptr noundef @.str, i32 noundef 101)
  call void @llvm.lifetime.end.p0(i64 8, ptr %1) #16
  ret void
}

; Function Attrs: nounwind sspstrong uwtable
define dso_local void @job_unlock() #0 {
  call void @qemu_mutex_unlock_impl(ptr noundef @job_mutex, ptr noundef @.str, i32 noundef 106)
  ret void
}

; Function Attrs: nounwind sspstrong uwtable
define internal zeroext i1 @job_cancel_requested_locked(ptr noundef %0) #0 {
  %2 = alloca ptr, align 8
  store ptr %0, ptr %2, align 8
  %3 = load ptr, ptr %2, align 8
  %4 = getelementptr inbounds nuw %struct.Job, ptr %3, i32 0, i32 16
  %5 = load i8, ptr %4, align 1, !range !7, !noundef !8
  %6 = trunc i8 %5 to i1
  ret i1 %6
}

; Function Attrs: nounwind sspstrong uwtable
define dso_local void @job_complete_locked(ptr noundef %0, ptr noundef %1) #0 {
  %3 = alloca ptr, align 8
  %4 = alloca ptr, align 8
  store ptr %0, ptr %3, align 8
  store ptr %1, ptr %4, align 8
  %5 = load ptr, ptr %3, align 8
  %6 = getelementptr inbounds nuw %struct.Job, ptr %5, i32 0, i32 0
  %7 = load ptr, ptr %6, align 8
  %8 = icmp ne ptr %7, null
  br i1 %8, label %9, label %10

9:                                                ; preds = %2
  br label %11

10:                                               ; preds = %2
  call void @__assert_fail(ptr noundef @.str.21, ptr noundef @.str, i32 noundef 1220, ptr noundef @__PRETTY_FUNCTION__.job_complete_locked) #20
  unreachable

11:                                               ; preds = %9
  br label %12

12:                                               ; preds = %11
  %13 = call zeroext i1 @qemu_in_main_thread()
  br i1 %13, label %14, label %15

14:                                               ; preds = %12
  br label %16

15:                                               ; preds = %12
  call void @__assert_fail(ptr noundef @.str.6, ptr noundef @.str, i32 noundef 1221, ptr noundef @__PRETTY_FUNCTION__.job_complete_locked) #20
  unreachable

16:                                               ; preds = %14
  br label %17

17:                                               ; preds = %16
  %18 = load ptr, ptr %3, align 8
  %19 = load ptr, ptr %4, align 8
  %20 = call i32 @job_apply_verb_locked(ptr noundef %18, i32 noundef 4, ptr noundef %19)
  %21 = icmp ne i32 %20, 0
  br i1 %21, label %22, label %23

22:                                               ; preds = %17
  br label %46

23:                                               ; preds = %17
  %24 = load ptr, ptr %3, align 8
  %25 = call zeroext i1 @job_cancel_requested_locked(ptr noundef %24)
  br i1 %25, label %33, label %26

26:                                               ; preds = %23
  %27 = load ptr, ptr %3, align 8
  %28 = getelementptr inbounds nuw %struct.Job, ptr %27, i32 0, i32 1
  %29 = load ptr, ptr %28, align 8
  %30 = getelementptr inbounds nuw %struct.JobDriver, ptr %29, i32 0, i32 6
  %31 = load ptr, ptr %30, align 8
  %32 = icmp ne ptr %31, null
  br i1 %32, label %38, label %33

33:                                               ; preds = %26, %23
  %34 = load ptr, ptr %4, align 8
  %35 = load ptr, ptr %3, align 8
  %36 = getelementptr inbounds nuw %struct.Job, ptr %35, i32 0, i32 0
  %37 = load ptr, ptr %36, align 8
  call void (ptr, ptr, i32, ptr, ptr, ...) @error_setg_internal(ptr noundef %34, ptr noundef @.str, i32 noundef 1227, ptr noundef @__func__.job_complete_locked, ptr noundef @.str.27, ptr noundef %37)
  br label %46

38:                                               ; preds = %26
  call void @job_unlock()
  %39 = load ptr, ptr %3, align 8
  %40 = getelementptr inbounds nuw %struct.Job, ptr %39, i32 0, i32 1
  %41 = load ptr, ptr %40, align 8
  %42 = getelementptr inbounds nuw %struct.JobDriver, ptr %41, i32 0, i32 6
  %43 = load ptr, ptr %42, align 8
  %44 = load ptr, ptr %3, align 8
  %45 = load ptr, ptr %4, align 8
  call void %43(ptr noundef %44, ptr noundef %45)
  call void @job_lock()
  br label %46

46:                                               ; preds = %38, %33, %22
  ret void
}