; Function Attrs: nounwind sspstrong uwtable
define dso_local void @job_complete_locked(ptr noundef %0, ptr noundef %1) #0 {
  %3 = load ptr, ptr %0, align 8
  %.not = icmp eq ptr %3, null
  br i1 %.not, label %4, label %5

4:                                                ; preds = %2
  tail call void @__assert_fail(ptr noundef nonnull @.str.21, ptr noundef nonnull @.str, i32 noundef 1220, ptr noundef nonnull @__PRETTY_FUNCTION__.job_complete_locked) #17
  unreachable

5:                                                ; preds = %2
  %6 = tail call zeroext i1 @qemu_in_main_thread() #15
  br i1 %6, label %8, label %7

7:                                                ; preds = %5
  tail call void @__assert_fail(ptr noundef nonnull @.str.6, ptr noundef nonnull @.str, i32 noundef 1221, ptr noundef nonnull @__PRETTY_FUNCTION__.job_complete_locked) #17
  unreachable

8:                                                ; preds = %5
  %9 = tail call i32 @job_apply_verb_locked(ptr noundef nonnull %0, i32 noundef 4, ptr noundef %1)
  %.not10 = icmp eq i32 %9, 0
  br i1 %.not10, label %10, label %26

10:                                               ; preds = %8
  %11 = getelementptr i8, ptr %0, i64 183
  %.val = load i8, ptr %11, align 1, !range !4, !noundef !5
  %12 = trunc nuw i8 %.val to i1
  br i1 %12, label %18, label %13

13:                                               ; preds = %10
  %14 = getelementptr inbounds nuw i8, ptr %0, i64 8
  %15 = load ptr, ptr %14, align 8
  %16 = getelementptr inbounds nuw i8, ptr %15, i64 48
  %17 = load ptr, ptr %16, align 8
  %.not11 = icmp eq ptr %17, null
  br i1 %.not11, label %18, label %20

18:                                               ; preds = %13, %10
  %19 = load ptr, ptr %0, align 8
  tail call void (ptr, ptr, i32, ptr, ptr, ...) @error_setg_internal(ptr noundef %1, ptr noundef nonnull @.str, i32 noundef 1227, ptr noundef nonnull @__func__.job_complete_locked, ptr noundef nonnull @.str.27, ptr noundef %19) #15
  br label %26

20:                                               ; preds = %13
  tail call void @qemu_mutex_unlock_impl(ptr noundef nonnull @job_mutex, ptr noundef nonnull @.str, i32 noundef 106) #15
  %21 = load ptr, ptr %14, align 8
  %22 = getelementptr inbounds nuw i8, ptr %21, i64 48
  %23 = load ptr, ptr %22, align 8
  tail call void %23(ptr noundef nonnull %0, ptr noundef %1) #15
  %24 = load atomic i64, ptr @qemu_mutex_lock_func monotonic, align 8
  %25 = inttoptr i64 %24 to ptr
  tail call void %25(ptr noundef nonnull @job_mutex, ptr noundef nonnull @.str, i32 noundef 101) #15
  br label %26

26:                                               ; preds = %8, %20, %18
  ret void
}